target datalayout = "e-m:e-p270:32:32-p271:32:32-p272:64:64-i64:64-i128:128-f80:128-n8:16:32:64-S128"
target triple = "x86_64-pc-linux-gnu"

%struct.formnode = type { i16, i16, i16, i32, i32, i32, i32, i16, i16, i16, i32, ptr, ptr, ptr, ptr, ptr, ptr, ptr, ptr, ptr, ptr, ptr }
%struct.fieldnode = type { i16, i16, i16, i16, i16, i32, i32, i32, i32, i16, i16, i16, i16, i32, i32, i32, i32, ptr, ptr, ptr, ptr, ptr, ptr, ptr, ptr }

; Function Attrs: nounwind uwtable
define internal i32 @Vertical_Scrolling(ptr noundef %0, ptr noundef %1) #0 {
  %3 = alloca ptr, align 8
  %4 = alloca ptr, align 8
  %5 = alloca i32, align 4
  store ptr %0, ptr %3, align 8, !tbaa !95
  store ptr %1, ptr %4, align 8, !tbaa !4
  call void @llvm.lifetime.start.p0(i64 4, ptr %5) #9
  store i32 -12, ptr %5, align 4, !tbaa !35
  %6 = load ptr, ptr %4, align 8, !tbaa !4
  %7 = getelementptr inbounds nuw %struct.formnode, ptr %6, i32 0, i32 15
  %8 = load ptr, ptr %7, align 8, !tbaa !16
  %9 = getelementptr inbounds nuw %struct.fieldnode, ptr %8, i32 0, i32 1
  %10 = load i16, ptr %9, align 2, !tbaa !28
  %11 = sext i16 %10 to i32
  %12 = load ptr, ptr %4, align 8, !tbaa !4
  %13 = getelementptr inbounds nuw %struct.formnode, ptr %12, i32 0, i32 15
  %14 = load ptr, ptr %13, align 8, !tbaa !16
  %15 = getelementptr inbounds nuw %struct.fieldnode, ptr %14, i32 0, i32 8
  %16 = load i32, ptr %15, align 8, !tbaa !36
  %17 = add nsw i32 %11, %16
  %18 = icmp eq i32 %17, 1
  br i1 %18, label %35, label %19

19:                                               ; preds = %2
  %20 = load ptr, ptr %3, align 8, !tbaa !95
  %21 = load ptr, ptr %4, align 8, !tbaa !4
  %22 = call i32 %20(ptr noundef %21)
  store i32 %22, ptr %5, align 4, !tbaa !35
  %23 = load i32, ptr %5, align 4, !tbaa !35
  %24 = icmp eq i32 %23, 0
  br i1 %24, label %25, label %34

25:                                               ; preds = %19
  %26 = load ptr, ptr %4, align 8, !tbaa !4
  %27 = getelementptr inbounds nuw %struct.formnode, ptr %26, i32 0, i32 15
  %28 = load ptr, ptr %27, align 8, !tbaa !16
  %29 = getelementptr inbounds nuw %struct.fieldnode, ptr %28, i32 0, i32 0
  %30 = load i16, ptr %29, align 8, !tbaa !37
  %31 = zext i16 %30 to i32
  %32 = or i32 %31, 2
  %33 = trunc i32 %32 to i16
  store i16 %33, ptr %29, align 8, !tbaa !37
  br label %34

34:                                               ; preds = %25, %19
  br label %35

35:                                               ; preds = %34, %2
  %36 = load i32, ptr %5, align 4, !tbaa !35
  call void @llvm.lifetime.end.p0(i64 4, ptr %5) #9
  ret i32 %36
}