; Function Attrs: nounwind uwtable
define internal i32 @Vertical_Scrolling(ptr noundef readonly captures(none) %0, ptr noundef %1) #0 {
  %3 = getelementptr inbounds nuw i8, ptr %1, i64 72
  %4 = load ptr, ptr %3, align 8, !tbaa !14
  %5 = getelementptr inbounds nuw i8, ptr %4, i64 2
  %6 = load i16, ptr %5, align 2, !tbaa !25
  %7 = sext i16 %6 to i32
  %8 = getelementptr inbounds nuw i8, ptr %4, i64 24
  %9 = load i32, ptr %8, align 8, !tbaa !33
  %10 = add nsw i32 %9, %7
  %11 = icmp eq i32 %10, 1
  br i1 %11, label %19, label %12

12:                                               ; preds = %2
  %13 = tail call i32 %0(ptr noundef nonnull %1) #13
  %14 = icmp eq i32 %13, 0
  br i1 %14, label %15, label %19

15:                                               ; preds = %12
  %16 = load ptr, ptr %3, align 8, !tbaa !14
  %17 = load i16, ptr %16, align 8, !tbaa !34
  %18 = or i16 %17, 2
  store i16 %18, ptr %16, align 8, !tbaa !34
  br label %19

19:                                               ; preds = %12, %15, %2
  %.0 = phi i32 [ -12, %2 ], [ 0, %15 ], [ %13, %12 ]
  ret i32 %.0
}